; ModuleID = '15/1111.c'
source_filename = "15/1111.c"
target datalayout = "e-m:e-p270:32:32-p271:32:32-p272:64:64-i64:64-f80:128-n8:16:32:64-S128"
target triple = "x86_64-pc-linux-gnu"

@.str = private unnamed_addr constant [3 x i8] c"%d\00", align 1
@.str.1 = private unnamed_addr constant [4 x i8] c"%d\0A\00", align 1

; Function Attrs: noinline nounwind uwtable
define dso_local i32 @main() #0 {
  %1 = alloca i32, align 4
  %2 = alloca i32, align 4
  %3 = alloca i32, align 4
  %4 = alloca i32, align 4
  %5 = alloca i32*, align 8
  %6 = alloca i32, align 4
  %7 = alloca i32, align 4
  %8 = alloca i32, align 4
  %9 = alloca i32, align 4
  store i32 0, i32* %1, align 4
  store i32 0, i32* %3, align 4
  store i32 0, i32* %4, align 4
  %10 = call i32 (i8*, ...) @__isoc99_scanf(i8* getelementptr inbounds ([3 x i8], [3 x i8]* @.str, i64 0, i64 0), i32* %2)
  %11 = load i32, i32* %2, align 4
  %12 = load i32, i32* %2, align 4
  %13 = mul nsw i32 %11, %12
  %14 = sext i32 %13 to i64
  %15 = mul i64 4, %14
  %16 = call noalias i8* @malloc(i64 %15) #3
  %17 = bitcast i8* %16 to i32*
  store i32* %17, i32** %5, align 8
  store i32 0, i32* %6, align 4
  br label %18

18:                                               ; preds = %40, %0
  %19 = load i32, i32* %6, align 4
  %20 = load i32, i32* %2, align 4
  %21 = load i32, i32* %2, align 4
  %22 = mul nsw i32 %20, %21
  %23 = icmp slt i32 %19, %22
  br i1 %23, label %24, label %43

24:                                               ; preds = %18
  %25 = load i32*, i32** %5, align 8
  %26 = load i32, i32* %6, align 4
  %27 = sext i32 %26 to i64
  %28 = getelementptr inbounds i32, i32* %25, i64 %27
  %29 = call i32 (i8*, ...) @__isoc99_scanf(i8* getelementptr inbounds ([3 x i8], [3 x i8]* @.str, i64 0, i64 0), i32* %28)
  %30 = load i32*, i32** %5, align 8
  %31 = load i32, i32* %6, align 4
  %32 = sext i32 %31 to i64
  %33 = getelementptr inbounds i32, i32* %30, i64 %32
  %34 = load i32, i32* %33, align 4
  %35 = icmp eq i32 %34, 0
  br i1 %35, label %36, label %39

36:                                               ; preds = %24
  %37 = load i32, i32* %3, align 4
  %38 = add nsw i32 %37, 1
  store i32 %38, i32* %3, align 4
  br label %39

39:                                               ; preds = %36, %24
  br label %40

40:                                               ; preds = %39
  %41 = load i32, i32* %6, align 4
  %42 = add nsw i32 %41, 1
  store i32 %42, i32* %6, align 4
  br label %18

43:                                               ; preds = %18
  store i32 0, i32* %7, align 4
  store i32 0, i32* %6, align 4
  br label %44

44:                                               ; preds = %74, %43
  %45 = load i32, i32* %6, align 4
  %46 = load i32, i32* %2, align 4
  %47 = load i32, i32* %2, align 4
  %48 = mul nsw i32 %46, %47
  %49 = icmp slt i32 %45, %48
  br i1 %49, label %50, label %77

50:                                               ; preds = %44
  %51 = load i32*, i32** %5, align 8
  %52 = load i32, i32* %6, align 4
  %53 = sext i32 %52 to i64
  %54 = getelementptr inbounds i32, i32* %51, i64 %53
  %55 = load i32, i32* %54, align 4
  %56 = icmp eq i32 %55, 0
  br i1 %56, label %57, label %73

57:                                               ; preds = %50
  %58 = load i32, i32* %7, align 4
  %59 = icmp eq i32 %58, 0
  br i1 %59, label %60, label %73

60:                                               ; preds = %57
  %61 = load i32, i32* %4, align 4
  %62 = add nsw i32 %61, 1
  store i32 %62, i32* %4, align 4
  %63 = load i32*, i32** %5, align 8
  %64 = load i32, i32* %6, align 4
  %65 = add nsw i32 %64, 1
  %66 = sext i32 %65 to i64
  %67 = getelementptr inbounds i32, i32* %63, i64 %66
  %68 = load i32, i32* %67, align 4
  %69 = icmp eq i32 %68, 255
  br i1 %69, label %70, label %71

70:                                               ; preds = %60
  store i32 1, i32* %7, align 4
  br label %72

71:                                               ; preds = %60
  br label %74

72:                                               ; preds = %70
  br label %73

73:                                               ; preds = %72, %57, %50
  br label %74

74:                                               ; preds = %73, %71
  %75 = load i32, i32* %6, align 4
  %76 = add nsw i32 %75, 1
  store i32 %76, i32* %6, align 4
  br label %44

77:                                               ; preds = %44
  %78 = load i32, i32* %3, align 4
  %79 = load i32, i32* %4, align 4
  %80 = mul nsw i32 %79, 2
  %81 = sub nsw i32 %78, %80
  %82 = sdiv i32 %81, 2
  %83 = add nsw i32 %82, 2
  store i32 %83, i32* %8, align 4
  %84 = load i32, i32* %8, align 4
  %85 = sub nsw i32 %84, 2
  %86 = load i32, i32* %4, align 4
  %87 = sub nsw i32 %86, 2
  %88 = mul nsw i32 %85, %87
  store i32 %88, i32* %9, align 4
  %89 = load i32, i32* %9, align 4
  %90 = call i32 (i8*, ...) @printf(i8* getelementptr inbounds ([4 x i8], [4 x i8]* @.str.1, i64 0, i64 0), i32 %89)
  %91 = load i32*, i32** %5, align 8
  %92 = bitcast i32* %91 to i8*
  call void @free(i8* %92) #3
  ret i32 0
}

declare dso_local i32 @__isoc99_scanf(i8*, ...) #1

; Function Attrs: nounwind
declare dso_local noalias i8* @malloc(i64) #2

declare dso_local i32 @printf(i8*, ...) #1

; Function Attrs: nounwind
declare dso_local void @free(i8*) #2


!llvm.module.flags = !{!0}
!llvm.ident = !{!1}

!0 = !{i32 1, !"wchar_size", i32 4}
!1 = !{!"clang version 10.0.0-4ubuntu1 "}
