; ModuleID = 'source-C-CXX/14/1111.c'
source_filename = "source-C-CXX/14/1111.c"
target datalayout = "e-m:e-p270:32:32-p271:32:32-p272:64:64-i64:64-f80:128-n8:16:32:64-S128"
target triple = "x86_64-pc-linux-gnu"

@.str = private unnamed_addr constant [3 x i8] c"%d\00", align 1
@.str.1 = private unnamed_addr constant [4 x i8] c"%d\0A\00", align 1

; Function Attrs: nounwind sspstrong uwtable
define dso_local i32 @main() local_unnamed_addr #0 {
  %1 = alloca i32, align 4
  %2 = bitcast i32* %1 to i8*
  call void @llvm.lifetime.start.p0i8(i64 4, i8* nonnull %2) #5
  %3 = call i32 (i8*, ...) @__isoc99_scanf(i8* getelementptr inbounds ([3 x i8], [3 x i8]* @.str, i64 0, i64 0), i32* nonnull %1)
  %4 = load i32, i32* %1, align 4, !tbaa !5
  %5 = mul nsw i32 %4, %4
  %6 = zext i32 %5 to i64
  %7 = shl nuw nsw i64 %6, 2
  %8 = call noalias align 16 i8* @malloc(i64 %7) #5
  %9 = bitcast i8* %8 to i32*
  %10 = icmp eq i32 %5, 0
  br i1 %10, label %52, label %15

11:                                               ; preds = %15
  %12 = icmp eq i32 %26, 0
  br i1 %12, label %52, label %13

13:                                               ; preds = %11
  %14 = zext i32 %26 to i64
  br label %29

15:                                               ; preds = %0, %15
  %16 = phi i64 [ %24, %15 ], [ 0, %0 ]
  %17 = phi i32 [ %23, %15 ], [ 0, %0 ]
  %18 = getelementptr inbounds i32, i32* %9, i64 %16
  %19 = call i32 (i8*, ...) @__isoc99_scanf(i8* getelementptr inbounds ([3 x i8], [3 x i8]* @.str, i64 0, i64 0), i32* %18)
  %20 = load i32, i32* %18, align 4, !tbaa !5
  %21 = icmp eq i32 %20, 0
  %22 = zext i1 %21 to i32
  %23 = add nuw nsw i32 %17, %22
  %24 = add nuw nsw i64 %16, 1
  %25 = load i32, i32* %1, align 4, !tbaa !5
  %26 = mul nsw i32 %25, %25
  %27 = zext i32 %26 to i64
  %28 = icmp ult i64 %24, %27
  br i1 %28, label %15, label %11, !llvm.loop !9

29:                                               ; preds = %13, %47
  %30 = phi i64 [ 0, %13 ], [ %48, %47 ]
  %31 = phi i32 [ 0, %13 ], [ %50, %47 ]
  %32 = phi i32 [ 0, %13 ], [ %49, %47 ]
  %33 = getelementptr inbounds i32, i32* %9, i64 %30
  %34 = load i32, i32* %33, align 4, !tbaa !5
  %35 = icmp eq i32 %34, 0
  %36 = icmp eq i32 %32, 0
  %37 = select i1 %35, i1 %36, i1 false
  br i1 %37, label %40, label %38

38:                                               ; preds = %29
  %39 = add nuw nsw i64 %30, 1
  br label %47

40:                                               ; preds = %29
  %41 = add nsw i32 %31, 1
  %42 = add nuw nsw i64 %30, 1
  %43 = getelementptr inbounds i32, i32* %9, i64 %42
  %44 = load i32, i32* %43, align 4, !tbaa !5
  %45 = icmp eq i32 %44, 255
  %46 = zext i1 %45 to i32
  br label %47

47:                                               ; preds = %38, %40
  %48 = phi i64 [ %39, %38 ], [ %42, %40 ]
  %49 = phi i32 [ %32, %38 ], [ %46, %40 ]
  %50 = phi i32 [ %31, %38 ], [ %41, %40 ]
  %51 = icmp eq i64 %48, %14
  br i1 %51, label %52, label %29, !llvm.loop !11

52:                                               ; preds = %47, %0, %11
  %53 = phi i32 [ %23, %11 ], [ 0, %0 ], [ %23, %47 ]
  %54 = phi i32 [ 0, %11 ], [ 0, %0 ], [ %50, %47 ]
  %55 = mul i32 %54, -2
  %56 = add i32 %55, %53
  %57 = sdiv i32 %56, 2
  %58 = add nsw i32 %54, -2
  %59 = mul nsw i32 %57, %58
  %60 = call i32 (i8*, ...) @printf(i8* nonnull dereferenceable(1) getelementptr inbounds ([4 x i8], [4 x i8]* @.str.1, i64 0, i64 0), i32 %59)
  call void @free(i8* %8) #5
  call void @llvm.lifetime.end.p0i8(i64 4, i8* nonnull %2) #5
  ret i32 0
}

; Function Attrs: argmemonly mustprogress nofree nosync nounwind willreturn
declare void @llvm.lifetime.start.p0i8(i64 immarg, i8* nocapture) #1

; Function Attrs: nofree nounwind
declare noundef i32 @__isoc99_scanf(i8* nocapture noundef readonly, ...) local_unnamed_addr #2

; Function Attrs: inaccessiblememonly mustprogress nofree nounwind willreturn
declare noalias noundef align 16 i8* @malloc(i64 noundef) local_unnamed_addr #3

; Function Attrs: nofree nounwind
declare noundef i32 @printf(i8* nocapture noundef readonly, ...) local_unnamed_addr #2

; Function Attrs: inaccessiblemem_or_argmemonly mustprogress nounwind willreturn
declare void @free(i8* nocapture noundef) local_unnamed_addr #4

; Function Attrs: argmemonly mustprogress nofree nosync nounwind willreturn
declare void @llvm.lifetime.end.p0i8(i64 immarg, i8* nocapture) #1


!llvm.module.flags = !{!0, !1, !2, !3}
!llvm.ident = !{!4}

!0 = !{i32 1, !"wchar_size", i32 4}
!1 = !{i32 7, !"PIC Level", i32 2}
!2 = !{i32 7, !"PIE Level", i32 2}
!3 = !{i32 7, !"uwtable", i32 1}
!4 = !{!"clang version 13.0.0"}
!5 = !{!6, !6, i64 0}
!6 = !{!"int", !7, i64 0}
!7 = !{!"omnipotent char", !8, i64 0}
!8 = !{!"Simple C/C++ TBAA"}
!9 = distinct !{!9, !10}
!10 = !{!"llvm.loop.mustprogress"}
!11 = distinct !{!11, !10}
